; Function Attrs: mustprogress uwtable
define internal fastcc void @_ZN7testing8internalL24LogElementMatcherPairVecERKSt6vectorISt4pairImmESaIS3_EEPSo(ptr noundef nonnull readonly align 8 captures(none) dereferenceable(24) %0, ptr noundef nonnull %1) unnamed_addr #3 {
  %3 = tail call noundef nonnull align 8 dereferenceable(8) ptr @_ZSt16__ostream_insertIcSt11char_traitsIcEERSt13basic_ostreamIT_T0_ES6_PKS3_l(ptr noundef nonnull align 8 dereferenceable(8) %1, ptr noundef nonnull @.str.105, i64 noundef 1)
  %4 = load ptr, ptr %0, align 8, !tbaa !183
  %5 = getelementptr inbounds nuw i8, ptr %0, i64 8
  %6 = load ptr, ptr %5, align 8, !tbaa !183
  %.not11 = icmp eq ptr %4, %6
  br i1 %.not11, label %._crit_edge, label %.lr.ph

._crit_edge:                                      ; preds = %.lr.ph, %2
  %7 = tail call noundef nonnull align 8 dereferenceable(8) ptr @_ZSt16__ostream_insertIcSt11char_traitsIcEERSt13basic_ostreamIT_T0_ES6_PKS3_l(ptr noundef nonnull align 8 dereferenceable(8) %1, ptr noundef nonnull @.str.108, i64 noundef 2)
  ret void

.lr.ph:                                           ; preds = %2, %.lr.ph
  %.013 = phi ptr [ @.str.107, %.lr.ph ], [ @.str.4, %2 ]
  %.sroa.07.012 = phi ptr [ %20, %.lr.ph ], [ %4, %2 ]
  %8 = tail call noundef i64 @strlen(ptr noundef nonnull dereferenceable(1) %.013) #34
  %9 = tail call noundef nonnull align 8 dereferenceable(8) ptr @_ZSt16__ostream_insertIcSt11char_traitsIcEERSt13basic_ostreamIT_T0_ES6_PKS3_l(ptr noundef nonnull align 8 dereferenceable(8) %1, ptr noundef nonnull %.013, i64 noundef %8)
  %10 = tail call noundef nonnull align 8 dereferenceable(8) ptr @_ZSt16__ostream_insertIcSt11char_traitsIcEERSt13basic_ostreamIT_T0_ES6_PKS3_l(ptr noundef nonnull align 8 dereferenceable(8) %1, ptr noundef nonnull @.str.106, i64 noundef 4)
  %11 = tail call noundef nonnull align 8 dereferenceable(8) ptr @_ZSt16__ostream_insertIcSt11char_traitsIcEERSt13basic_ostreamIT_T0_ES6_PKS3_l(ptr noundef nonnull align 8 dereferenceable(8) %1, ptr noundef nonnull @.str.38, i64 noundef 9)
  %12 = load i64, ptr %.sroa.07.012, align 8, !tbaa !184
  %13 = tail call noundef nonnull align 8 dereferenceable(8) ptr @_ZNSo9_M_insertImEERSoT_(ptr noundef nonnull align 8 dereferenceable(8) %1, i64 noundef %12)
  %14 = tail call noundef nonnull align 8 dereferenceable(8) ptr @_ZSt16__ostream_insertIcSt11char_traitsIcEERSt13basic_ostreamIT_T0_ES6_PKS3_l(ptr noundef nonnull align 8 dereferenceable(8) %13, ptr noundef nonnull @.str.6, i64 noundef 2)
  %15 = tail call noundef nonnull align 8 dereferenceable(8) ptr @_ZSt16__ostream_insertIcSt11char_traitsIcEERSt13basic_ostreamIT_T0_ES6_PKS3_l(ptr noundef nonnull align 8 dereferenceable(8) %13, ptr noundef nonnull @.str.33, i64 noundef 9)
  %16 = getelementptr inbounds nuw i8, ptr %.sroa.07.012, i64 8
  %17 = load i64, ptr %16, align 8, !tbaa !186
  %18 = tail call noundef nonnull align 8 dereferenceable(8) ptr @_ZNSo9_M_insertImEERSoT_(ptr noundef nonnull align 8 dereferenceable(8) %13, i64 noundef %17)
  %19 = tail call noundef nonnull align 8 dereferenceable(8) ptr @_ZSt16__ostream_insertIcSt11char_traitsIcEERSt13basic_ostreamIT_T0_ES6_PKS3_l(ptr noundef nonnull align 8 dereferenceable(8) %18, ptr noundef nonnull @.str.7, i64 noundef 1)
  %20 = getelementptr inbounds nuw i8, ptr %.sroa.07.012, i64 16
  %21 = load ptr, ptr %5, align 8, !tbaa !183
  %.not = icmp eq ptr %20, %21
  br i1 %.not, label %._crit_edge, label %.lr.ph, !llvm.loop !187
}